; Function Attrs: mustprogress nofree norecurse nosync nounwind willreturn memory(read, argmem: readwrite, inaccessiblemem: none) uwtable
define noundef ptr @_ZNK6icu_7517ResourceDataValue9getBinaryERiR10UErrorCode(ptr nocapture noundef nonnull readonly align 8 dereferenceable(29) %this, ptr nocapture noundef nonnull writeonly align 4 dereferenceable(4) %length, ptr nocapture noundef nonnull align 4 dereferenceable(4) %errorCode) unnamed_addr #5 align 2 {
entry:
  %0 = load i32, ptr %errorCode, align 4
  %cmp.i = icmp slt i32 %0, 1
  br i1 %cmp.i, label %if.end, label %return

if.end:                                           ; preds = %entry
  %pResData.i = getelementptr inbounds i8, ptr %this, i64 8
  %1 = load ptr, ptr %pResData.i, align 8
  %res = getelementptr inbounds i8, ptr %this, i64 24
  %2 = load i32, ptr %res, align 8
  %and.i.i = and i32 %2, 268435455
  %shr.mask.i.i = and i32 %2, -268435456
  %cmp.i.i = icmp eq i32 %shr.mask.i.i, 268435456
  br i1 %cmp.i.i, label %if.then.i.i, label %if.then4

if.then.i.i:                                      ; preds = %if.end
  %cmp1.i.i = icmp eq i32 %and.i.i, 0
  br i1 %cmp1.i.i, label %_ZN6icu_7513res_getBinaryERKNS_14ResourceTracerEPK12ResourceDatajPi.exit, label %cond.false.i.i

cond.false.i.i:                                   ; preds = %if.then.i.i
  %pRoot.i.i = getelementptr inbounds i8, ptr %1, i64 8
  %3 = load ptr, ptr %pRoot.i.i, align 8
  %idx.ext.i.i = zext nneg i32 %and.i.i to i64
  %add.ptr.i.i = getelementptr inbounds i32, ptr %3, i64 %idx.ext.i.i
  br label %_ZN6icu_7513res_getBinaryERKNS_14ResourceTracerEPK12ResourceDatajPi.exit

_ZN6icu_7513res_getBinaryERKNS_14ResourceTracerEPK12ResourceDatajPi.exit: ; preds = %if.then.i.i, %cond.false.i.i
  %cond.i.i = phi ptr [ %add.ptr.i.i, %cond.false.i.i ], [ @_ZL8gEmpty32, %if.then.i.i ]
  %incdec.ptr.i.i = getelementptr inbounds i8, ptr %cond.i.i, i64 4
  %4 = load i32, ptr %cond.i.i, align 4
  store i32 %4, ptr %length, align 4
  br label %return

if.then4:                                         ; preds = %if.end
  store i32 0, ptr %length, align 4
  store i32 17, ptr %errorCode, align 4
  br label %return

return:                                           ; preds = %_ZN6icu_7513res_getBinaryERKNS_14ResourceTracerEPK12ResourceDatajPi.exit, %if.then4, %entry
  %retval.0 = phi ptr [ null, %entry ], [ null, %if.then4 ], [ %incdec.ptr.i.i, %_ZN6icu_7513res_getBinaryERKNS_14ResourceTracerEPK12ResourceDatajPi.exit ]
  ret ptr %retval.0
}